; Function Attrs: nounwind uwtable
define dso_local void @write_stderr(ptr noundef %0, ...) local_unnamed_addr #3 {
  %2 = alloca [1 x %struct.__va_list_tag], align 16
  call void @llvm.lifetime.start.p0(i64 24, ptr nonnull %2) #32
  call void @llvm.va_start.p0(ptr nonnull %2)
  %3 = load ptr, ptr @stderr, align 8
  %4 = call i32 @pg_vfprintf(ptr noundef %3, ptr noundef %0, ptr noundef nonnull %2) #32
  %5 = load ptr, ptr @stderr, align 8
  %6 = call i32 @fflush(ptr noundef %5)
  call void @llvm.va_end.p0(ptr nonnull %2)
  call void @llvm.lifetime.end.p0(i64 24, ptr nonnull %2) #32
  ret void
}